target datalayout = "e-m:e-p270:32:32-p271:32:32-p272:64:64-i64:64-i128:128-f80:128-n8:16:32:64-S128"
target triple = "x86_64-pc-linux-gnu"

%"class.google::protobuf::io::CodedInputStream" = type { ptr, ptr, ptr, i32, i32, i32, i8, i8, i32, i32, i32, i32, i32, ptr, ptr }

; Function Attrs: inlinehint mustprogress nounwind uwtable
define linkonce_odr hidden noundef ptr @_ZN6google8protobuf2io16CodedInputStream27ReadLittleEndian64FromArrayEPKhPm(ptr noundef %0, ptr noundef %1) #8 comdat align 2 {
  %3 = alloca ptr, align 8
  %4 = alloca ptr, align 8
  store ptr %0, ptr %3, align 8, !tbaa !50
  store ptr %1, ptr %4, align 8, !tbaa !52
  %5 = load ptr, ptr %4, align 8, !tbaa !52
  %6 = load ptr, ptr %3, align 8, !tbaa !50
  call void @llvm.memcpy.p0.p0.i64(ptr align 8 %5, ptr align 1 %6, i64 8, i1 false)
  %7 = load ptr, ptr %3, align 8, !tbaa !50
  %8 = getelementptr inbounds nuw i8, ptr %7, i64 8
  ret ptr %8
}

; Function Attrs: mustprogress uwtable
define hidden noundef zeroext i1 @_ZN6google8protobuf2io16CodedInputStream7ReadRawEPvi(ptr noundef nonnull align 8 dereferenceable(80) %0, ptr noundef %1, i32 noundef %2) #5 align 2 {
  %4 = alloca i1, align 1
  %5 = alloca ptr, align 8
  %6 = alloca ptr, align 8
  %7 = alloca i32, align 4
  %8 = alloca i32, align 4
  %9 = alloca i32, align 4
  store ptr %0, ptr %5, align 8, !tbaa !3
  store ptr %1, ptr %6, align 8, !tbaa !41
  store i32 %2, ptr %7, align 4, !tbaa !18
  %10 = load ptr, ptr %5, align 8
  call void @llvm.lifetime.start.p0(i64 4, ptr %8) #3
  br label %11

11:                                               ; preds = %31, %3
  %12 = call noundef i32 @_ZNK6google8protobuf2io16CodedInputStream10BufferSizeEv(ptr noundef nonnull align 8 dereferenceable(80) %10)
  store i32 %12, ptr %8, align 4, !tbaa !18
  %13 = load i32, ptr %7, align 4, !tbaa !18
  %14 = icmp slt i32 %12, %13
  br i1 %14, label %15, label %32

15:                                               ; preds = %11
  %16 = load ptr, ptr %6, align 8, !tbaa !41
  %17 = getelementptr inbounds nuw %"class.google::protobuf::io::CodedInputStream", ptr %10, i32 0, i32 0
  %18 = load ptr, ptr %17, align 8, !tbaa !22
  %19 = load i32, ptr %8, align 4, !tbaa !18
  %20 = sext i32 %19 to i64
  call void @llvm.memcpy.p0.p0.i64(ptr align 1 %16, ptr align 1 %18, i64 %20, i1 false)
  %21 = load ptr, ptr %6, align 8, !tbaa !41
  %22 = load i32, ptr %8, align 4, !tbaa !18
  %23 = sext i32 %22 to i64
  %24 = getelementptr inbounds i8, ptr %21, i64 %23
  store ptr %24, ptr %6, align 8, !tbaa !41
  %25 = load i32, ptr %8, align 4, !tbaa !18
  %26 = load i32, ptr %7, align 4, !tbaa !18
  %27 = sub nsw i32 %26, %25
  store i32 %27, ptr %7, align 4, !tbaa !18
  %28 = load i32, ptr %8, align 4, !tbaa !18
  call void @_ZN6google8protobuf2io16CodedInputStream7AdvanceEi(ptr noundef nonnull align 8 dereferenceable(80) %10, i32 noundef %28)
  %29 = call noundef zeroext i1 @_ZN6google8protobuf2io16CodedInputStream7RefreshEv(ptr noundef nonnull align 8 dereferenceable(80) %10)
  br i1 %29, label %31, label %30

30:                                               ; preds = %15
  store i1 false, ptr %4, align 1
  store i32 1, ptr %9, align 4
  br label %39

31:                                               ; preds = %15
  br label %11, !llvm.loop !43

32:                                               ; preds = %11
  %33 = load ptr, ptr %6, align 8, !tbaa !41
  %34 = getelementptr inbounds nuw %"class.google::protobuf::io::CodedInputStream", ptr %10, i32 0, i32 0
  %35 = load ptr, ptr %34, align 8, !tbaa !22
  %36 = load i32, ptr %7, align 4, !tbaa !18
  %37 = sext i32 %36 to i64
  call void @llvm.memcpy.p0.p0.i64(ptr align 1 %33, ptr align 1 %35, i64 %37, i1 false)
  %38 = load i32, ptr %7, align 4, !tbaa !18
  call void @_ZN6google8protobuf2io16CodedInputStream7AdvanceEi(ptr noundef nonnull align 8 dereferenceable(80) %10, i32 noundef %38)
  store i1 true, ptr %4, align 1
  store i32 1, ptr %9, align 4
  br label %39

39:                                               ; preds = %32, %30
  call void @llvm.lifetime.end.p0(i64 4, ptr %8) #3
  %40 = load i1, ptr %4, align 1
  ret i1 %40
}

; Function Attrs: inlinehint mustprogress nounwind uwtable
define linkonce_odr hidden void @_ZN6google8protobuf2io16CodedInputStream7AdvanceEi(ptr noundef nonnull align 8 dereferenceable(80) %0, i32 noundef %1) #8 comdat align 2 {
  %3 = alloca ptr, align 8
  %4 = alloca i32, align 4
  store ptr %0, ptr %3, align 8, !tbaa !3
  store i32 %1, ptr %4, align 4, !tbaa !18
  %5 = load ptr, ptr %3, align 8
  %6 = load i32, ptr %4, align 4, !tbaa !18
  %7 = getelementptr inbounds nuw %"class.google::protobuf::io::CodedInputStream", ptr %5, i32 0, i32 0
  %8 = load ptr, ptr %7, align 8, !tbaa !22
  %9 = sext i32 %6 to i64
  %10 = getelementptr inbounds i8, ptr %8, i64 %9
  store ptr %10, ptr %7, align 8, !tbaa !22
  ret void
}

; Function Attrs: inlinehint mustprogress nounwind uwtable
define linkonce_odr hidden noundef i32 @_ZNK6google8protobuf2io16CodedInputStream10BufferSizeEv(ptr noundef nonnull align 8 dereferenceable(80) %0) #8 comdat align 2 {
  %2 = alloca ptr, align 8
  store ptr %0, ptr %2, align 8, !tbaa !3
  %3 = load ptr, ptr %2, align 8
  %4 = getelementptr inbounds nuw %"class.google::protobuf::io::CodedInputStream", ptr %3, i32 0, i32 1
  %5 = load ptr, ptr %4, align 8, !tbaa !23
  %6 = getelementptr inbounds nuw %"class.google::protobuf::io::CodedInputStream", ptr %3, i32 0, i32 0
  %7 = load ptr, ptr %6, align 8, !tbaa !22
  %8 = ptrtoint ptr %5 to i64
  %9 = ptrtoint ptr %7 to i64
  %10 = sub i64 %8, %9
  %11 = trunc i64 %10 to i32
  ret i32 %11
}

; Function Attrs: mustprogress uwtable
define hidden noundef zeroext i1 @_ZN6google8protobuf2io16CodedInputStream26ReadLittleEndian64FallbackEPm(ptr noundef nonnull align 8 dereferenceable(80) %0, ptr noundef %1) #5 align 2 {
  %3 = alloca i1, align 1
  %4 = alloca ptr, align 8
  %5 = alloca ptr, align 8
  %6 = alloca [8 x i8], align 1
  %7 = alloca ptr, align 8
  %8 = alloca i32, align 4
  store ptr %0, ptr %4, align 8, !tbaa !3
  store ptr %1, ptr %5, align 8, !tbaa !52
  %9 = load ptr, ptr %4, align 8
  call void @llvm.lifetime.start.p0(i64 8, ptr %6) #3
  call void @llvm.lifetime.start.p0(i64 8, ptr %7) #3
  %10 = call noundef i32 @_ZNK6google8protobuf2io16CodedInputStream10BufferSizeEv(ptr noundef nonnull align 8 dereferenceable(80) %9)
  %11 = sext i32 %10 to i64
  %12 = icmp sge i64 %11, 8
  br i1 %12, label %13, label %16

13:                                               ; preds = %2
  %14 = getelementptr inbounds nuw %"class.google::protobuf::io::CodedInputStream", ptr %9, i32 0, i32 0
  %15 = load ptr, ptr %14, align 8, !tbaa !22
  store ptr %15, ptr %7, align 8, !tbaa !50
  call void @_ZN6google8protobuf2io16CodedInputStream7AdvanceEi(ptr noundef nonnull align 8 dereferenceable(80) %9, i32 noundef 8)
  br label %22

16:                                               ; preds = %2
  %17 = getelementptr inbounds [8 x i8], ptr %6, i64 0, i64 0
  %18 = call noundef zeroext i1 @_ZN6google8protobuf2io16CodedInputStream7ReadRawEPvi(ptr noundef nonnull align 8 dereferenceable(80) %9, ptr noundef %17, i32 noundef 8)
  br i1 %18, label %20, label %19

19:                                               ; preds = %16
  store i1 false, ptr %3, align 1
  store i32 1, ptr %8, align 4
  br label %26

20:                                               ; preds = %16
  %21 = getelementptr inbounds [8 x i8], ptr %6, i64 0, i64 0
  store ptr %21, ptr %7, align 8, !tbaa !50
  br label %22

22:                                               ; preds = %20, %13
  %23 = load ptr, ptr %7, align 8, !tbaa !50
  %24 = load ptr, ptr %5, align 8, !tbaa !52
  %25 = call noundef ptr @_ZN6google8protobuf2io16CodedInputStream27ReadLittleEndian64FromArrayEPKhPm(ptr noundef %23, ptr noundef %24)
  store i1 true, ptr %3, align 1
  store i32 1, ptr %8, align 4
  br label %26

26:                                               ; preds = %22, %19
  call void @llvm.lifetime.end.p0(i64 8, ptr %7) #3
  call void @llvm.lifetime.end.p0(i64 8, ptr %6) #3
  %27 = load i1, ptr %3, align 1
  ret i1 %27
}