; Function Attrs: mustprogress uwtable
define hidden noundef zeroext i1 @_ZN6google8protobuf2io16CodedInputStream26ReadLittleEndian64FallbackEPm(ptr noundef nonnull align 8 captures(none) dereferenceable(80) %0, ptr noundef writeonly captures(none) %1) local_unnamed_addr #4 align 2 {
  %3 = alloca [8 x i8], align 1
  call void @llvm.lifetime.start.p0(i64 8, ptr nonnull %3) #18
  %4 = getelementptr inbounds nuw i8, ptr %0, i64 8
  %5 = load ptr, ptr %4, align 8, !tbaa !14
  %6 = load ptr, ptr %0, align 8, !tbaa !15
  %7 = ptrtoint ptr %5 to i64
  %8 = ptrtoint ptr %6 to i64
  %9 = sub i64 %7, %8
  %10 = trunc i64 %9 to i32
  %11 = icmp sgt i32 %10, 7
  br i1 %11, label %12, label %.preheader

12:                                               ; preds = %2
  %13 = getelementptr inbounds nuw i8, ptr %6, i64 8
  br label %28

.preheader:                                       ; preds = %2, %20
  %.013.i = phi ptr [ %22, %20 ], [ %3, %2 ]
  %.012.i = phi i32 [ %23, %20 ], [ 8, %2 ]
  %14 = load ptr, ptr %4, align 8, !tbaa !14
  %15 = load ptr, ptr %0, align 8, !tbaa !15
  %16 = ptrtoint ptr %14 to i64
  %17 = ptrtoint ptr %15 to i64
  %18 = sub i64 %16, %17
  %19 = trunc i64 %18 to i32
  %.not.not.not.i.not = icmp sgt i32 %.012.i, %19
  br i1 %.not.not.not.i.not, label %20, label %_ZN6google8protobuf2io16CodedInputStream7ReadRawEPvi.exit.thread

20:                                               ; preds = %.preheader
  %sext.i = shl i64 %18, 32
  %21 = ashr exact i64 %sext.i, 32
  call void @llvm.memcpy.p0.p0.i64(ptr align 1 %.013.i, ptr align 1 %15, i64 %21, i1 false)
  %22 = getelementptr inbounds i8, ptr %.013.i, i64 %21
  %23 = sub nsw i32 %.012.i, %19
  %24 = getelementptr inbounds i8, ptr %15, i64 %21
  store ptr %24, ptr %0, align 8, !tbaa !15
  %25 = tail call noundef zeroext i1 @_ZN6google8protobuf2io16CodedInputStream7RefreshEv(ptr noundef nonnull align 8 dereferenceable(80) %0)
  br i1 %25, label %.preheader, label %_ZN6google8protobuf2io16CodedInputStream7ReadRawEPvi.exit, !llvm.loop !35

_ZN6google8protobuf2io16CodedInputStream7ReadRawEPvi.exit.thread: ; preds = %.preheader
  %26 = sext i32 %.012.i to i64
  call void @llvm.memcpy.p0.p0.i64(ptr align 1 %.013.i, ptr align 1 %15, i64 %26, i1 false)
  %27 = getelementptr inbounds i8, ptr %15, i64 %26
  br label %28

28:                                               ; preds = %_ZN6google8protobuf2io16CodedInputStream7ReadRawEPvi.exit.thread, %12
  %storemerge = phi ptr [ %27, %_ZN6google8protobuf2io16CodedInputStream7ReadRawEPvi.exit.thread ], [ %13, %12 ]
  %.0 = phi ptr [ %3, %_ZN6google8protobuf2io16CodedInputStream7ReadRawEPvi.exit.thread ], [ %6, %12 ]
  store ptr %storemerge, ptr %0, align 8, !tbaa !15
  %29 = load i64, ptr %.0, align 1
  store i64 %29, ptr %1, align 8
  br label %_ZN6google8protobuf2io16CodedInputStream7ReadRawEPvi.exit

_ZN6google8protobuf2io16CodedInputStream7ReadRawEPvi.exit: ; preds = %20, %28
  %.04 = phi i1 [ true, %28 ], [ false, %20 ]
  call void @llvm.lifetime.end.p0(i64 8, ptr nonnull %3) #18
  ret i1 %.04
}